target datalayout = "e-m:e-p270:32:32-p271:32:32-p272:64:64-i64:64-i128:128-f80:128-n8:16:32:64-S128"
target triple = "x86_64-unknown-linux-gnu"

%"class.std::__cxx11::basic_string" = type { %"struct.std::__cxx11::basic_string<char>::_Alloc_hider", i64, %union.anon }
%"struct.std::__cxx11::basic_string<char>::_Alloc_hider" = type { ptr }
%union.anon = type { i64, [8 x i8] }
%"class.std::shared_ptr.18" = type { %"class.std::__shared_ptr.19" }
%"class.std::__shared_ptr.19" = type { ptr, %"class.std::__shared_count" }
%"class.std::__shared_count" = type { ptr }
%"class.rocksdb::CompactionJob" = type { ptr, ptr, %"struct.rocksdb::InternalStats::CompactionStatsFull", ptr, %"struct.rocksdb::MutableDBOptions", ptr, ptr, ptr, i8, i32, %"class.rocksdb::IOStatus", ptr, i32, ptr, %"class.std::__cxx11::basic_string", %"class.std::__cxx11::basic_string", %"struct.rocksdb::FileOptions", ptr, %"class.std::shared_ptr.15", %"class.rocksdb::FileSystemPtr", %"struct.rocksdb::FileOptions", ptr, ptr, ptr, ptr, ptr, ptr, ptr, %"class.std::vector.3", i64, ptr, ptr, %"class.std::shared_ptr", ptr, i8, i8, %"class.std::vector.24", i32, %"class.std::__cxx11::basic_string", %"class.std::__cxx11::basic_string", ptr, i32, ptr, ptr, %"class.rocksdb::SeqnoToTimeMapping", i64, i64 }
%"struct.rocksdb::InternalStats::CompactionStatsFull" = type { %"struct.rocksdb::InternalStats::CompactionStats", i8, [7 x i8], %"struct.rocksdb::InternalStats::CompactionStats" }
%"struct.rocksdb::InternalStats::CompactionStats" = type <{ i64, i64, i64, i64, i64, i64, i64, i64, i32, i32, i32, i32, i64, i64, i64, i32, [20 x i32], [4 x i8] }>
%"struct.rocksdb::MutableDBOptions" = type { i32, i32, i32, i8, i64, i64, i64, i64, i32, i32, i64, i32, i64, i64, i8, i64, i32, %"class.std::__cxx11::basic_string" }
%"class.rocksdb::IOStatus" = type { %"class.rocksdb::Status" }
%"class.rocksdb::Status" = type { i8, i8, i8, i8, i8, i8, %"class.std::unique_ptr" }
%"class.std::unique_ptr" = type { %"struct.std::__uniq_ptr_data" }
%"struct.std::__uniq_ptr_data" = type { %"class.std::__uniq_ptr_impl" }
%"class.std::__uniq_ptr_impl" = type { %"class.std::tuple" }
%"class.std::tuple" = type { %"struct.std::_Tuple_impl" }
%"struct.std::_Tuple_impl" = type { %"struct.std::_Head_base.9" }
%"struct.std::_Head_base.9" = type { ptr }
%"class.std::shared_ptr.15" = type { %"class.std::__shared_ptr.16" }
%"class.std::__shared_ptr.16" = type { ptr, %"class.std::__shared_count" }
%"class.rocksdb::FileSystemPtr" = type { %"class.std::shared_ptr.18", %"class.std::shared_ptr.15", %"class.std::shared_ptr.21" }
%"class.std::shared_ptr.21" = type { %"class.std::__shared_ptr.22" }
%"class.std::__shared_ptr.22" = type { ptr, %"class.std::__shared_count" }
%"struct.rocksdb::FileOptions" = type <{ %"struct.rocksdb::EnvOptions", %"struct.rocksdb::IOOptions", i8, i8, [6 x i8] }>
%"struct.rocksdb::EnvOptions" = type { i8, i8, i8, i8, i8, i8, i64, i8, i8, i64, i64, i64, ptr }
%"struct.rocksdb::IOOptions" = type <{ %"class.std::chrono::duration", i8, [3 x i8], i32, i8, [7 x i8], %"class.std::unordered_map", i8, i8, i8, [5 x i8] }>
%"class.std::chrono::duration" = type { i64 }
%"class.std::unordered_map" = type { %"class.std::_Hashtable" }
%"class.std::_Hashtable" = type { ptr, i64, %"struct.std::__detail::_Hash_node_base", i64, %"struct.std::__detail::_Prime_rehash_policy", ptr }
%"struct.std::__detail::_Hash_node_base" = type { ptr }
%"struct.std::__detail::_Prime_rehash_policy" = type { float, i64 }
%"class.std::vector.3" = type { %"struct.std::_Vector_base.4" }
%"struct.std::_Vector_base.4" = type { %"struct.std::_Vector_base<unsigned long, std::allocator<unsigned long>>::_Vector_impl" }
%"struct.std::_Vector_base<unsigned long, std::allocator<unsigned long>>::_Vector_impl" = type { %"struct.std::_Vector_base<unsigned long, std::allocator<unsigned long>>::_Vector_impl_data" }
%"struct.std::_Vector_base<unsigned long, std::allocator<unsigned long>>::_Vector_impl_data" = type { ptr, ptr, ptr }
%"class.std::shared_ptr" = type { %"class.std::__shared_ptr" }
%"class.std::__shared_ptr" = type { ptr, %"class.std::__shared_count" }
%"class.std::vector.24" = type { %"struct.std::_Vector_base.25" }
%"struct.std::_Vector_base.25" = type { %"struct.std::_Vector_base<std::__cxx11::basic_string<char>, std::allocator<std::__cxx11::basic_string<char>>>::_Vector_impl" }
%"struct.std::_Vector_base<std::__cxx11::basic_string<char>, std::allocator<std::__cxx11::basic_string<char>>>::_Vector_impl" = type { %"struct.std::_Vector_base<std::__cxx11::basic_string<char>, std::allocator<std::__cxx11::basic_string<char>>>::_Vector_impl_data" }
%"struct.std::_Vector_base<std::__cxx11::basic_string<char>, std::allocator<std::__cxx11::basic_string<char>>>::_Vector_impl_data" = type { ptr, ptr, ptr }
%"class.rocksdb::SeqnoToTimeMapping" = type <{ i64, i64, %"class.std::deque", i8, [7 x i8] }>
%"class.std::deque" = type { %"class.std::_Deque_base" }
%"class.std::_Deque_base" = type { %"struct.std::_Deque_base<rocksdb::SeqnoToTimeMapping::SeqnoTimePair, std::allocator<rocksdb::SeqnoToTimeMapping::SeqnoTimePair>>::_Deque_impl" }
%"struct.std::_Deque_base<rocksdb::SeqnoToTimeMapping::SeqnoTimePair, std::allocator<rocksdb::SeqnoToTimeMapping::SeqnoTimePair>>::_Deque_impl" = type { %"struct.std::_Deque_base<rocksdb::SeqnoToTimeMapping::SeqnoTimePair, std::allocator<rocksdb::SeqnoToTimeMapping::SeqnoTimePair>>::_Deque_impl_data" }
%"struct.std::_Deque_base<rocksdb::SeqnoToTimeMapping::SeqnoTimePair, std::allocator<rocksdb::SeqnoToTimeMapping::SeqnoTimePair>>::_Deque_impl_data" = type { ptr, i64, %"struct.std::_Deque_iterator", %"struct.std::_Deque_iterator" }
%"struct.std::_Deque_iterator" = type { ptr, ptr, ptr, ptr }
%"class.rocksdb::InstrumentedMutex" = type <{ %"class.rocksdb::port::Mutex", ptr, ptr, i32, [4 x i8] }>
%"class.rocksdb::port::Mutex" = type { %union.pthread_mutex_t }
%union.pthread_mutex_t = type { %struct.__pthread_mutex_s }
%struct.__pthread_mutex_s = type { i32, i32, i32, i32, i32, i16, i16, %struct.__pthread_internal_list }
%struct.__pthread_internal_list = type { ptr, ptr }

; Function Attrs: mustprogress uwtable
define linkonce_odr void @_ZN7rocksdb17InstrumentedMutex6UnlockEv(ptr noundef nonnull align 8 dereferenceable(60) %this) #0 comdat align 2 {
entry:
  %this.addr = alloca ptr, align 8
  store ptr %this, ptr %this.addr, align 8
  %this1 = load ptr, ptr %this.addr, align 8
  %mutex_ = getelementptr inbounds %"class.rocksdb::InstrumentedMutex", ptr %this1, i32 0, i32 0
  call void @_ZN7rocksdb4port5Mutex6UnlockEv(ptr noundef nonnull align 8 dereferenceable(40) %mutex_)
  ret void
}

; Function Attrs: mustprogress nounwind uwtable
define linkonce_odr noundef nonnull align 4 dereferenceable(4) ptr @_ZSt3minIN7rocksdb3Env8PriorityEERKT_S5_S5_(ptr noundef nonnull align 4 dereferenceable(4) %__a, ptr noundef nonnull align 4 dereferenceable(4) %__b) #1 comdat {
entry:
  %retval = alloca ptr, align 8
  %__a.addr = alloca ptr, align 8
  %__b.addr = alloca ptr, align 8
  store ptr %__a, ptr %__a.addr, align 8
  store ptr %__b, ptr %__b.addr, align 8
  %0 = load ptr, ptr %__b.addr, align 8
  %1 = load i32, ptr %0, align 4
  %2 = load ptr, ptr %__a.addr, align 8
  %3 = load i32, ptr %2, align 4
  %cmp = icmp slt i32 %1, %3
  br i1 %cmp, label %if.then, label %if.end

if.then:                                          ; preds = %entry
  %4 = load ptr, ptr %__b.addr, align 8
  store ptr %4, ptr %retval, align 8
  br label %return

if.end:                                           ; preds = %entry
  %5 = load ptr, ptr %__a.addr, align 8
  store ptr %5, ptr %retval, align 8
  br label %return

return:                                           ; preds = %if.end, %if.then
  %6 = load ptr, ptr %retval, align 8
  ret ptr %6
}

; Function Attrs: mustprogress uwtable
define void @_ZN7rocksdb13CompactionJob28ShrinkSubcompactionResourcesEm(ptr noundef nonnull align 8 dereferenceable(1456) %this, i64 noundef %num_extra_resources) #0 align 2 {
entry:
  %this.addr = alloca ptr, align 8
  %num_extra_resources.addr = alloca i64, align 8
  %extra_num_subcompaction_threads_released = alloca i32, align 4
  %ref.tmp = alloca i32, align 4
  store ptr %this, ptr %this.addr, align 8
  store i64 %num_extra_resources, ptr %num_extra_resources.addr, align 8
  %this1 = load ptr, ptr %this.addr, align 8
  %0 = load i64, ptr %num_extra_resources.addr, align 8
  %cmp = icmp eq i64 %0, 0
  br i1 %cmp, label %if.then, label %if.end

if.then:                                          ; preds = %entry
  br label %return

if.end:                                           ; preds = %entry
  %db_mutex_ = getelementptr inbounds %"class.rocksdb::CompactionJob", ptr %this1, i32 0, i32 26
  %1 = load ptr, ptr %db_mutex_, align 8
  call void @_ZN7rocksdb17InstrumentedMutex4LockEv(ptr noundef nonnull align 8 dereferenceable(60) %1)
  %env_ = getelementptr inbounds %"class.rocksdb::CompactionJob", ptr %this1, i32 0, i32 17
  %2 = load ptr, ptr %env_, align 8
  %3 = load i64, ptr %num_extra_resources.addr, align 8
  %conv = trunc i64 %3 to i32
  %thread_pri_ = getelementptr inbounds %"class.rocksdb::CompactionJob", ptr %this1, i32 0, i32 37
  store i32 2, ptr %ref.tmp, align 4
  %call = call noundef nonnull align 4 dereferenceable(4) ptr @_ZSt3minIN7rocksdb3Env8PriorityEERKT_S5_S5_(ptr noundef nonnull align 4 dereferenceable(4) %thread_pri_, ptr noundef nonnull align 4 dereferenceable(4) %ref.tmp)
  %4 = load i32, ptr %call, align 4
  %vtable = load ptr, ptr %2, align 8
  %vfn = getelementptr inbounds ptr, ptr %vtable, i64 51
  %5 = load ptr, ptr %vfn, align 8
  %call2 = call noundef i32 %5(ptr noundef nonnull align 8 dereferenceable(72) %2, i32 noundef %conv, i32 noundef %4)
  store i32 %call2, ptr %extra_num_subcompaction_threads_released, align 4
  %6 = load i32, ptr %extra_num_subcompaction_threads_released, align 4
  %extra_num_subcompaction_threads_reserved_ = getelementptr inbounds %"class.rocksdb::CompactionJob", ptr %this1, i32 0, i32 41
  %7 = load i32, ptr %extra_num_subcompaction_threads_reserved_, align 8
  %sub = sub nsw i32 %7, %6
  store i32 %sub, ptr %extra_num_subcompaction_threads_reserved_, align 8
  %thread_pri_3 = getelementptr inbounds %"class.rocksdb::CompactionJob", ptr %this1, i32 0, i32 37
  %8 = load i32, ptr %thread_pri_3, align 8
  %cmp4 = icmp eq i32 %8, 0
  br i1 %cmp4, label %if.then5, label %if.else

if.then5:                                         ; preds = %if.end
  %9 = load i32, ptr %extra_num_subcompaction_threads_released, align 4
  %bg_bottom_compaction_scheduled_ = getelementptr inbounds %"class.rocksdb::CompactionJob", ptr %this1, i32 0, i32 43
  %10 = load ptr, ptr %bg_bottom_compaction_scheduled_, align 8
  %11 = load i32, ptr %10, align 4
  %sub6 = sub nsw i32 %11, %9
  store i32 %sub6, ptr %10, align 4
  br label %if.end8

if.else:                                          ; preds = %if.end
  %12 = load i32, ptr %extra_num_subcompaction_threads_released, align 4
  %bg_compaction_scheduled_ = getelementptr inbounds %"class.rocksdb::CompactionJob", ptr %this1, i32 0, i32 42
  %13 = load ptr, ptr %bg_compaction_scheduled_, align 8
  %14 = load i32, ptr %13, align 4
  %sub7 = sub nsw i32 %14, %12
  store i32 %sub7, ptr %13, align 4
  br label %if.end8

if.end8:                                          ; preds = %if.else, %if.then5
  %db_mutex_9 = getelementptr inbounds %"class.rocksdb::CompactionJob", ptr %this1, i32 0, i32 26
  %15 = load ptr, ptr %db_mutex_9, align 8
  call void @_ZN7rocksdb17InstrumentedMutex6UnlockEv(ptr noundef nonnull align 8 dereferenceable(60) %15)
  br label %return

return:                                           ; preds = %if.end8, %if.then
  ret void
}