; Function Attrs: mustprogress uwtable
define void @_ZN7rocksdb13CompactionJob28ShrinkSubcompactionResourcesEm(ptr nocapture noundef nonnull align 8 dereferenceable(1456) %this, i64 noundef %num_extra_resources) local_unnamed_addr #5 align 2 {
entry:
  %cmp = icmp eq i64 %num_extra_resources, 0
  br i1 %cmp, label %return, label %if.end

if.end:                                           ; preds = %entry
  %db_mutex_ = getelementptr inbounds i8, ptr %this, i64 1112
  %0 = load ptr, ptr %db_mutex_, align 8
  tail call void @_ZN7rocksdb17InstrumentedMutex4LockEv(ptr noundef nonnull align 8 dereferenceable(60) %0)
  %env_ = getelementptr inbounds i8, ptr %this, i64 848
  %1 = load ptr, ptr %env_, align 8
  %conv = trunc i64 %num_extra_resources to i32
  %thread_pri_ = getelementptr inbounds i8, ptr %this, i64 1232
  %2 = load i32, ptr %thread_pri_, align 8
  %.sroa.speculated = tail call i32 @llvm.smin.i32(i32 %2, i32 2)
  %vtable = load ptr, ptr %1, align 8
  %vfn = getelementptr inbounds i8, ptr %vtable, i64 408
  %3 = load ptr, ptr %vfn, align 8
  %call2 = tail call noundef i32 %3(ptr noundef nonnull align 8 dereferenceable(72) %1, i32 noundef %conv, i32 noundef %.sroa.speculated)
  %extra_num_subcompaction_threads_reserved_ = getelementptr inbounds i8, ptr %this, i64 1312
  %4 = load i32, ptr %extra_num_subcompaction_threads_reserved_, align 8
  %sub = sub nsw i32 %4, %call2
  store i32 %sub, ptr %extra_num_subcompaction_threads_reserved_, align 8
  %5 = load i32, ptr %thread_pri_, align 8
  %cmp4 = icmp eq i32 %5, 0
  %. = select i1 %cmp4, i64 1328, i64 1320
  %bg_compaction_scheduled_ = getelementptr inbounds i8, ptr %this, i64 %.
  %6 = load ptr, ptr %bg_compaction_scheduled_, align 8
  %7 = load i32, ptr %6, align 4
  %sub7 = sub nsw i32 %7, %call2
  store i32 %sub7, ptr %6, align 4
  %8 = load ptr, ptr %db_mutex_, align 8
  tail call void @_ZN7rocksdb4port5Mutex6UnlockEv(ptr noundef nonnull align 8 dereferenceable(40) %8)
  br label %return

return:                                           ; preds = %entry, %if.end
  ret void
}